target datalayout = "e-m:e-p270:32:32-p271:32:32-p272:64:64-i64:64-i128:128-f80:128-n8:16:32:64-S128"
target triple = "x86_64-pc-linux-gnu"

%"class.llvm::StringRef" = type { ptr, i64 }

@.str.16 = private unnamed_addr constant [10 x i8] c"FieldList\00", align 1
@.str.89 = private unnamed_addr constant [8 x i8] c"Pointer\00", align 1
@.str.90 = private unnamed_addr constant [9 x i8] c"Modifier\00", align 1
@.str.91 = private unnamed_addr constant [10 x i8] c"Procedure\00", align 1
@.str.92 = private unnamed_addr constant [15 x i8] c"MemberFunction\00", align 1
@.str.93 = private unnamed_addr constant [6 x i8] c"Label\00", align 1
@.str.94 = private unnamed_addr constant [8 x i8] c"ArgList\00", align 1
@.str.95 = private unnamed_addr constant [6 x i8] c"Array\00", align 1
@.str.96 = private unnamed_addr constant [6 x i8] c"Class\00", align 1
@.str.97 = private unnamed_addr constant [7 x i8] c"Struct\00", align 1
@.str.98 = private unnamed_addr constant [10 x i8] c"Interface\00", align 1
@.str.99 = private unnamed_addr constant [6 x i8] c"Union\00", align 1
@.str.100 = private unnamed_addr constant [5 x i8] c"Enum\00", align 1
@.str.101 = private unnamed_addr constant [12 x i8] c"TypeServer2\00", align 1
@.str.102 = private unnamed_addr constant [8 x i8] c"VFTable\00", align 1
@.str.103 = private unnamed_addr constant [13 x i8] c"VFTableShape\00", align 1
@.str.104 = private unnamed_addr constant [9 x i8] c"BitField\00", align 1
@.str.105 = private unnamed_addr constant [10 x i8] c"BaseClass\00", align 1
@.str.106 = private unnamed_addr constant [14 x i8] c"BaseInterface\00", align 1
@.str.107 = private unnamed_addr constant [17 x i8] c"VirtualBaseClass\00", align 1
@.str.108 = private unnamed_addr constant [25 x i8] c"IndirectVirtualBaseClass\00", align 1
@.str.109 = private unnamed_addr constant [6 x i8] c"VFPtr\00", align 1
@.str.110 = private unnamed_addr constant [17 x i8] c"StaticDataMember\00", align 1
@.str.111 = private unnamed_addr constant [17 x i8] c"OverloadedMethod\00", align 1
@.str.112 = private unnamed_addr constant [11 x i8] c"DataMember\00", align 1
@.str.113 = private unnamed_addr constant [11 x i8] c"NestedType\00", align 1
@.str.114 = private unnamed_addr constant [10 x i8] c"OneMethod\00", align 1
@.str.115 = private unnamed_addr constant [11 x i8] c"Enumerator\00", align 1
@.str.116 = private unnamed_addr constant [17 x i8] c"ListContinuation\00", align 1
@.str.117 = private unnamed_addr constant [7 x i8] c"FuncId\00", align 1
@.str.118 = private unnamed_addr constant [13 x i8] c"MemberFuncId\00", align 1
@.str.119 = private unnamed_addr constant [10 x i8] c"BuildInfo\00", align 1
@.str.120 = private unnamed_addr constant [11 x i8] c"StringList\00", align 1
@.str.121 = private unnamed_addr constant [9 x i8] c"StringId\00", align 1
@.str.122 = private unnamed_addr constant [14 x i8] c"UdtSourceLine\00", align 1
@.str.123 = private unnamed_addr constant [17 x i8] c"UdtModSourceLine\00", align 1
@.str.124 = private unnamed_addr constant [19 x i8] c"MethodOverloadList\00", align 1
@.str.125 = private unnamed_addr constant [8 x i8] c"Precomp\00", align 1
@.str.126 = private unnamed_addr constant [11 x i8] c"EndPrecomp\00", align 1
@.str.127 = private unnamed_addr constant [12 x i8] c"UnknownLeaf\00", align 1

; Function Attrs: mustprogress nounwind uwtable
define linkonce_odr hidden noundef i64 @_ZNSt11char_traitsIcE6lengthEPKc(ptr noundef %0) #0 comdat align 2 {
  %2 = alloca ptr, align 8
  store ptr %0, ptr %2, align 8
  %3 = load ptr, ptr %2, align 8
  %4 = call i64 @strlen(ptr noundef %3) #10
  ret i64 %4
}

; Function Attrs: mustprogress nounwind uwtable
define linkonce_odr hidden void @_ZN4llvm9StringRefC2EPKc(ptr noundef nonnull align 8 dereferenceable(16) %0, ptr noundef %1) unnamed_addr #0 comdat align 2 {
  %3 = alloca ptr, align 8
  %4 = alloca ptr, align 8
  store ptr %0, ptr %3, align 8
  store ptr %1, ptr %4, align 8
  %5 = load ptr, ptr %3, align 8
  %6 = getelementptr inbounds nuw %"class.llvm::StringRef", ptr %5, i32 0, i32 0
  %7 = load ptr, ptr %4, align 8
  store ptr %7, ptr %6, align 8
  %8 = getelementptr inbounds nuw %"class.llvm::StringRef", ptr %5, i32 0, i32 1
  %9 = load ptr, ptr %4, align 8
  %10 = icmp ne ptr %9, null
  br i1 %10, label %11, label %14

11:                                               ; preds = %2
  %12 = load ptr, ptr %4, align 8
  %13 = call noundef i64 @_ZNSt11char_traitsIcE6lengthEPKc(ptr noundef %12)
  br label %15

14:                                               ; preds = %2
  br label %15

15:                                               ; preds = %14, %11
  %16 = phi i64 [ %13, %11 ], [ 0, %14 ]
  store i64 %16, ptr %8, align 8
  ret void
}

; Function Attrs: mustprogress nounwind uwtable
define internal { ptr, i64 } @_ZL15getLeafTypeNameN4llvm8codeview12TypeLeafKindE(i16 noundef zeroext %0) #0 {
  %2 = alloca %"class.llvm::StringRef", align 8
  %3 = alloca i16, align 2
  store i16 %0, ptr %3, align 2
  %4 = load i16, ptr %3, align 2
  %5 = zext i16 %4 to i32
  switch i32 %5, label %45 [
    i32 4098, label %6
    i32 4097, label %7
    i32 4104, label %8
    i32 4105, label %9
    i32 14, label %10
    i32 4609, label %11
    i32 4611, label %12
    i32 5379, label %13
    i32 5380, label %14
    i32 5381, label %15
    i32 5401, label %16
    i32 5382, label %17
    i32 5383, label %18
    i32 5397, label %19
    i32 5405, label %20
    i32 10, label %21
    i32 4613, label %22
    i32 5120, label %23
    i32 5402, label %24
    i32 5121, label %25
    i32 5122, label %26
    i32 5129, label %27
    i32 5390, label %28
    i32 5391, label %29
    i32 5389, label %30
    i32 5392, label %31
    i32 5393, label %32
    i32 5378, label %33
    i32 5124, label %34
    i32 5633, label %35
    i32 5634, label %36
    i32 5635, label %37
    i32 5636, label %38
    i32 5637, label %39
    i32 5638, label %40
    i32 5639, label %41
    i32 4614, label %42
    i32 5385, label %43
    i32 20, label %44
  ]

6:                                                ; preds = %1
  call void @_ZN4llvm9StringRefC2EPKc(ptr noundef nonnull align 8 dereferenceable(16) %2, ptr noundef @.str.89)
  br label %47

7:                                                ; preds = %1
  call void @_ZN4llvm9StringRefC2EPKc(ptr noundef nonnull align 8 dereferenceable(16) %2, ptr noundef @.str.90)
  br label %47

8:                                                ; preds = %1
  call void @_ZN4llvm9StringRefC2EPKc(ptr noundef nonnull align 8 dereferenceable(16) %2, ptr noundef @.str.91)
  br label %47

9:                                                ; preds = %1
  call void @_ZN4llvm9StringRefC2EPKc(ptr noundef nonnull align 8 dereferenceable(16) %2, ptr noundef @.str.92)
  br label %47

10:                                               ; preds = %1
  call void @_ZN4llvm9StringRefC2EPKc(ptr noundef nonnull align 8 dereferenceable(16) %2, ptr noundef @.str.93)
  br label %47

11:                                               ; preds = %1
  call void @_ZN4llvm9StringRefC2EPKc(ptr noundef nonnull align 8 dereferenceable(16) %2, ptr noundef @.str.94)
  br label %47

12:                                               ; preds = %1
  call void @_ZN4llvm9StringRefC2EPKc(ptr noundef nonnull align 8 dereferenceable(16) %2, ptr noundef @.str.16)
  br label %47

13:                                               ; preds = %1
  call void @_ZN4llvm9StringRefC2EPKc(ptr noundef nonnull align 8 dereferenceable(16) %2, ptr noundef @.str.95)
  br label %47

14:                                               ; preds = %1
  call void @_ZN4llvm9StringRefC2EPKc(ptr noundef nonnull align 8 dereferenceable(16) %2, ptr noundef @.str.96)
  br label %47

15:                                               ; preds = %1
  call void @_ZN4llvm9StringRefC2EPKc(ptr noundef nonnull align 8 dereferenceable(16) %2, ptr noundef @.str.97)
  br label %47

16:                                               ; preds = %1
  call void @_ZN4llvm9StringRefC2EPKc(ptr noundef nonnull align 8 dereferenceable(16) %2, ptr noundef @.str.98)
  br label %47

17:                                               ; preds = %1
  call void @_ZN4llvm9StringRefC2EPKc(ptr noundef nonnull align 8 dereferenceable(16) %2, ptr noundef @.str.99)
  br label %47

18:                                               ; preds = %1
  call void @_ZN4llvm9StringRefC2EPKc(ptr noundef nonnull align 8 dereferenceable(16) %2, ptr noundef @.str.100)
  br label %47

19:                                               ; preds = %1
  call void @_ZN4llvm9StringRefC2EPKc(ptr noundef nonnull align 8 dereferenceable(16) %2, ptr noundef @.str.101)
  br label %47

20:                                               ; preds = %1
  call void @_ZN4llvm9StringRefC2EPKc(ptr noundef nonnull align 8 dereferenceable(16) %2, ptr noundef @.str.102)
  br label %47

21:                                               ; preds = %1
  call void @_ZN4llvm9StringRefC2EPKc(ptr noundef nonnull align 8 dereferenceable(16) %2, ptr noundef @.str.103)
  br label %47

22:                                               ; preds = %1
  call void @_ZN4llvm9StringRefC2EPKc(ptr noundef nonnull align 8 dereferenceable(16) %2, ptr noundef @.str.104)
  br label %47

23:                                               ; preds = %1
  call void @_ZN4llvm9StringRefC2EPKc(ptr noundef nonnull align 8 dereferenceable(16) %2, ptr noundef @.str.105)
  br label %47

24:                                               ; preds = %1
  call void @_ZN4llvm9StringRefC2EPKc(ptr noundef nonnull align 8 dereferenceable(16) %2, ptr noundef @.str.106)
  br label %47

25:                                               ; preds = %1
  call void @_ZN4llvm9StringRefC2EPKc(ptr noundef nonnull align 8 dereferenceable(16) %2, ptr noundef @.str.107)
  br label %47

26:                                               ; preds = %1
  call void @_ZN4llvm9StringRefC2EPKc(ptr noundef nonnull align 8 dereferenceable(16) %2, ptr noundef @.str.108)
  br label %47

27:                                               ; preds = %1
  call void @_ZN4llvm9StringRefC2EPKc(ptr noundef nonnull align 8 dereferenceable(16) %2, ptr noundef @.str.109)
  br label %47

28:                                               ; preds = %1
  call void @_ZN4llvm9StringRefC2EPKc(ptr noundef nonnull align 8 dereferenceable(16) %2, ptr noundef @.str.110)
  br label %47

29:                                               ; preds = %1
  call void @_ZN4llvm9StringRefC2EPKc(ptr noundef nonnull align 8 dereferenceable(16) %2, ptr noundef @.str.111)
  br label %47

30:                                               ; preds = %1
  call void @_ZN4llvm9StringRefC2EPKc(ptr noundef nonnull align 8 dereferenceable(16) %2, ptr noundef @.str.112)
  br label %47

31:                                               ; preds = %1
  call void @_ZN4llvm9StringRefC2EPKc(ptr noundef nonnull align 8 dereferenceable(16) %2, ptr noundef @.str.113)
  br label %47

32:                                               ; preds = %1
  call void @_ZN4llvm9StringRefC2EPKc(ptr noundef nonnull align 8 dereferenceable(16) %2, ptr noundef @.str.114)
  br label %47

33:                                               ; preds = %1
  call void @_ZN4llvm9StringRefC2EPKc(ptr noundef nonnull align 8 dereferenceable(16) %2, ptr noundef @.str.115)
  br label %47

34:                                               ; preds = %1
  call void @_ZN4llvm9StringRefC2EPKc(ptr noundef nonnull align 8 dereferenceable(16) %2, ptr noundef @.str.116)
  br label %47

35:                                               ; preds = %1
  call void @_ZN4llvm9StringRefC2EPKc(ptr noundef nonnull align 8 dereferenceable(16) %2, ptr noundef @.str.117)
  br label %47

36:                                               ; preds = %1
  call void @_ZN4llvm9StringRefC2EPKc(ptr noundef nonnull align 8 dereferenceable(16) %2, ptr noundef @.str.118)
  br label %47

37:                                               ; preds = %1
  call void @_ZN4llvm9StringRefC2EPKc(ptr noundef nonnull align 8 dereferenceable(16) %2, ptr noundef @.str.119)
  br label %47

38:                                               ; preds = %1
  call void @_ZN4llvm9StringRefC2EPKc(ptr noundef nonnull align 8 dereferenceable(16) %2, ptr noundef @.str.120)
  br label %47

39:                                               ; preds = %1
  call void @_ZN4llvm9StringRefC2EPKc(ptr noundef nonnull align 8 dereferenceable(16) %2, ptr noundef @.str.121)
  br label %47

40:                                               ; preds = %1
  call void @_ZN4llvm9StringRefC2EPKc(ptr noundef nonnull align 8 dereferenceable(16) %2, ptr noundef @.str.122)
  br label %47

41:                                               ; preds = %1
  call void @_ZN4llvm9StringRefC2EPKc(ptr noundef nonnull align 8 dereferenceable(16) %2, ptr noundef @.str.123)
  br label %47

42:                                               ; preds = %1
  call void @_ZN4llvm9StringRefC2EPKc(ptr noundef nonnull align 8 dereferenceable(16) %2, ptr noundef @.str.124)
  br label %47

43:                                               ; preds = %1
  call void @_ZN4llvm9StringRefC2EPKc(ptr noundef nonnull align 8 dereferenceable(16) %2, ptr noundef @.str.125)
  br label %47

44:                                               ; preds = %1
  call void @_ZN4llvm9StringRefC2EPKc(ptr noundef nonnull align 8 dereferenceable(16) %2, ptr noundef @.str.126)
  br label %47

45:                                               ; preds = %1
  br label %46

46:                                               ; preds = %45
  call void @_ZN4llvm9StringRefC2EPKc(ptr noundef nonnull align 8 dereferenceable(16) %2, ptr noundef @.str.127)
  br label %47

47:                                               ; preds = %46, %44, %43, %42, %41, %40, %39, %38, %37, %36, %35, %34, %33, %32, %31, %30, %29, %28, %27, %26, %25, %24, %23, %22, %21, %20, %19, %18, %17, %16, %15, %14, %13, %12, %11, %10, %9, %8, %7, %6
  %48 = load { ptr, i64 }, ptr %2, align 8
  ret { ptr, i64 } %48
}