; Function Attrs: mustprogress nofree norecurse nosync nounwind willreturn memory(none) uwtable
define internal fastcc { ptr, i64 } @_ZL15getLeafTypeNameN4llvm8codeview12TypeLeafKindE(i16 noundef zeroext %0) unnamed_addr #3 {
  switch i16 %0, label %40 [
    i16 4098, label %41
    i16 4097, label %2
    i16 4104, label %3
    i16 4105, label %4
    i16 14, label %5
    i16 4609, label %6
    i16 4611, label %7
    i16 5379, label %8
    i16 5380, label %9
    i16 5381, label %10
    i16 5401, label %11
    i16 5382, label %12
    i16 5383, label %13
    i16 5397, label %14
    i16 5405, label %15
    i16 10, label %16
    i16 4613, label %17
    i16 5120, label %18
    i16 5402, label %19
    i16 5121, label %20
    i16 5122, label %21
    i16 5129, label %22
    i16 5390, label %23
    i16 5391, label %24
    i16 5389, label %25
    i16 5392, label %26
    i16 5393, label %27
    i16 5378, label %28
    i16 5124, label %29
    i16 5633, label %30
    i16 5634, label %31
    i16 5635, label %32
    i16 5636, label %33
    i16 5637, label %34
    i16 5638, label %35
    i16 5639, label %36
    i16 4614, label %37
    i16 5385, label %38
    i16 20, label %39
  ]

2:                                                ; preds = %1
  br label %41

3:                                                ; preds = %1
  br label %41

4:                                                ; preds = %1
  br label %41

5:                                                ; preds = %1
  br label %41

6:                                                ; preds = %1
  br label %41

7:                                                ; preds = %1
  br label %41

8:                                                ; preds = %1
  br label %41

9:                                                ; preds = %1
  br label %41

10:                                               ; preds = %1
  br label %41

11:                                               ; preds = %1
  br label %41

12:                                               ; preds = %1
  br label %41

13:                                               ; preds = %1
  br label %41

14:                                               ; preds = %1
  br label %41

15:                                               ; preds = %1
  br label %41

16:                                               ; preds = %1
  br label %41

17:                                               ; preds = %1
  br label %41

18:                                               ; preds = %1
  br label %41

19:                                               ; preds = %1
  br label %41

20:                                               ; preds = %1
  br label %41

21:                                               ; preds = %1
  br label %41

22:                                               ; preds = %1
  br label %41

23:                                               ; preds = %1
  br label %41

24:                                               ; preds = %1
  br label %41

25:                                               ; preds = %1
  br label %41

26:                                               ; preds = %1
  br label %41

27:                                               ; preds = %1
  br label %41

28:                                               ; preds = %1
  br label %41

29:                                               ; preds = %1
  br label %41

30:                                               ; preds = %1
  br label %41

31:                                               ; preds = %1
  br label %41

32:                                               ; preds = %1
  br label %41

33:                                               ; preds = %1
  br label %41

34:                                               ; preds = %1
  br label %41

35:                                               ; preds = %1
  br label %41

36:                                               ; preds = %1
  br label %41

37:                                               ; preds = %1
  br label %41

38:                                               ; preds = %1
  br label %41

39:                                               ; preds = %1
  br label %41

40:                                               ; preds = %1
  br label %41

41:                                               ; preds = %1, %40, %39, %38, %37, %36, %35, %34, %33, %32, %31, %30, %29, %28, %27, %26, %25, %24, %23, %22, %21, %20, %19, %18, %17, %16, %15, %14, %13, %12, %11, %10, %9, %8, %7, %6, %5, %4, %3, %2
  %.sroa.41.0 = phi i64 [ 11, %40 ], [ 10, %39 ], [ 7, %38 ], [ 18, %37 ], [ 16, %36 ], [ 13, %35 ], [ 8, %34 ], [ 10, %33 ], [ 9, %32 ], [ 12, %31 ], [ 6, %30 ], [ 16, %29 ], [ 10, %28 ], [ 9, %27 ], [ 10, %26 ], [ 10, %25 ], [ 16, %24 ], [ 16, %23 ], [ 5, %22 ], [ 24, %21 ], [ 16, %20 ], [ 13, %19 ], [ 9, %18 ], [ 8, %17 ], [ 12, %16 ], [ 7, %15 ], [ 11, %14 ], [ 4, %13 ], [ 5, %12 ], [ 9, %11 ], [ 6, %10 ], [ 5, %9 ], [ 5, %8 ], [ 9, %7 ], [ 7, %6 ], [ 5, %5 ], [ 14, %4 ], [ 9, %3 ], [ 8, %2 ], [ 7, %1 ]
  %.sroa.0.0 = phi ptr [ @.str.127, %40 ], [ @.str.126, %39 ], [ @.str.125, %38 ], [ @.str.124, %37 ], [ @.str.123, %36 ], [ @.str.122, %35 ], [ @.str.121, %34 ], [ @.str.120, %33 ], [ @.str.119, %32 ], [ @.str.118, %31 ], [ @.str.117, %30 ], [ @.str.116, %29 ], [ @.str.115, %28 ], [ @.str.114, %27 ], [ @.str.113, %26 ], [ @.str.112, %25 ], [ @.str.111, %24 ], [ @.str.110, %23 ], [ @.str.109, %22 ], [ @.str.108, %21 ], [ @.str.107, %20 ], [ @.str.106, %19 ], [ @.str.105, %18 ], [ @.str.104, %17 ], [ @.str.103, %16 ], [ @.str.102, %15 ], [ @.str.101, %14 ], [ @.str.100, %13 ], [ @.str.99, %12 ], [ @.str.98, %11 ], [ @.str.97, %10 ], [ @.str.96, %9 ], [ @.str.95, %8 ], [ @.str.16, %7 ], [ @.str.94, %6 ], [ @.str.93, %5 ], [ @.str.92, %4 ], [ @.str.91, %3 ], [ @.str.90, %2 ], [ @.str.89, %1 ]
  %.fca.0.insert = insertvalue { ptr, i64 } poison, ptr %.sroa.0.0, 0
  %.fca.1.insert = insertvalue { ptr, i64 } %.fca.0.insert, i64 %.sroa.41.0, 1
  ret { ptr, i64 } %.fca.1.insert
}